target datalayout = "e-m:e-p270:32:32-p271:32:32-p272:64:64-i64:64-i128:128-f80:128-n8:16:32:64-S128"
target triple = "x86_64-pc-linux-gnu"

%"class.llvm::StringRef" = type { ptr, i64 }
%"class.std::__cxx11::basic_string" = type { %"struct.std::__cxx11::basic_string<char>::_Alloc_hider", i64, %union.anon }
%"struct.std::__cxx11::basic_string<char>::_Alloc_hider" = type { ptr }
%union.anon = type { i64, [8 x i8] }
%"class.llvm::Triple" = type { %"class.std::__cxx11::basic_string", i32, i32, i32, i32, i32, i32 }
%"class.llvm::StringLiteral" = type { %"class.llvm::StringRef" }

@.str.8 = private unnamed_addr constant [1 x i8] zeroinitializer, align 1
@.str.21 = private unnamed_addr constant [6 x i8] c"core2\00", align 1
@.str.22 = private unnamed_addr constant [6 x i8] c"yonah\00", align 1
@.str.23 = private unnamed_addr constant [10 x i8] c"apple-a12\00", align 1
@.str.24 = private unnamed_addr constant [8 x i8] c"cyclone\00", align 1

; Function Attrs: mustprogress nounwind uwtable
define linkonce_odr hidden noundef zeroext i1 @_ZNK4llvm6Triple6isTvOSEv(ptr noundef nonnull align 8 dereferenceable(56) %0) #1 comdat align 2 {
  %2 = alloca ptr, align 8
  store ptr %0, ptr %2, align 8
  %3 = load ptr, ptr %2, align 8
  %4 = call noundef i32 @_ZNK4llvm6Triple5getOSEv(ptr noundef nonnull align 8 dereferenceable(56) %3)
  %5 = icmp eq i32 %4, 26
  ret i1 %5
}

; Function Attrs: mustprogress nounwind uwtable
define linkonce_odr hidden noundef i32 @_ZNK4llvm6Triple5getOSEv(ptr noundef nonnull align 8 dereferenceable(56) %0) #1 comdat align 2 {
  %2 = alloca ptr, align 8
  store ptr %0, ptr %2, align 8
  %3 = load ptr, ptr %2, align 8
  %4 = getelementptr inbounds nuw %"class.llvm::Triple", ptr %3, i32 0, i32 4
  %5 = load i32, ptr %4, align 4
  ret i32 %5
}

; Function Attrs: mustprogress nounwind uwtable
define linkonce_odr hidden noundef i32 @_ZNK4llvm6Triple10getSubArchEv(ptr noundef nonnull align 8 dereferenceable(56) %0) #1 comdat align 2 {
  %2 = alloca ptr, align 8
  store ptr %0, ptr %2, align 8
  %3 = load ptr, ptr %2, align 8
  %4 = getelementptr inbounds nuw %"class.llvm::Triple", ptr %3, i32 0, i32 2
  %5 = load i32, ptr %4, align 4
  ret i32 %5
}

; Function Attrs: mustprogress nounwind uwtable
define linkonce_odr hidden void @_ZN4llvm9StringRefC2EPKcm(ptr noundef nonnull align 8 dereferenceable(16) %0, ptr noundef %1, i64 noundef %2) unnamed_addr #1 comdat align 2 {
  %4 = alloca ptr, align 8
  %5 = alloca ptr, align 8
  %6 = alloca i64, align 8
  store ptr %0, ptr %4, align 8
  store ptr %1, ptr %5, align 8
  store i64 %2, ptr %6, align 8
  %7 = load ptr, ptr %4, align 8
  %8 = getelementptr inbounds nuw %"class.llvm::StringRef", ptr %7, i32 0, i32 0
  %9 = load ptr, ptr %5, align 8
  store ptr %9, ptr %8, align 8
  %10 = getelementptr inbounds nuw %"class.llvm::StringRef", ptr %7, i32 0, i32 1
  %11 = load i64, ptr %6, align 8
  store i64 %11, ptr %10, align 8
  ret void
}

; Function Attrs: mustprogress nounwind uwtable
define linkonce_odr hidden noundef zeroext i1 @_ZNK4llvm6Triple6isXROSEv(ptr noundef nonnull align 8 dereferenceable(56) %0) #1 comdat align 2 {
  %2 = alloca ptr, align 8
  store ptr %0, ptr %2, align 8
  %3 = load ptr, ptr %2, align 8
  %4 = call noundef i32 @_ZNK4llvm6Triple5getOSEv(ptr noundef nonnull align 8 dereferenceable(56) %3)
  %5 = icmp eq i32 %4, 30
  ret i1 %5
}

; Function Attrs: mustprogress nounwind uwtable
define linkonce_odr hidden noundef zeroext i1 @_ZNK4llvm6Triple11isDriverKitEv(ptr noundef nonnull align 8 dereferenceable(56) %0) #1 comdat align 2 {
  %2 = alloca ptr, align 8
  store ptr %0, ptr %2, align 8
  %3 = load ptr, ptr %2, align 8
  %4 = call noundef i32 @_ZNK4llvm6Triple5getOSEv(ptr noundef nonnull align 8 dereferenceable(56) %3)
  %5 = icmp eq i32 %4, 29
  ret i1 %5
}

; Function Attrs: mustprogress nounwind uwtable
define linkonce_odr hidden noundef zeroext i1 @_ZNK4llvm6Triple9isWatchOSEv(ptr noundef nonnull align 8 dereferenceable(56) %0) #1 comdat align 2 {
  %2 = alloca ptr, align 8
  store ptr %0, ptr %2, align 8
  %3 = load ptr, ptr %2, align 8
  %4 = call noundef i32 @_ZNK4llvm6Triple5getOSEv(ptr noundef nonnull align 8 dereferenceable(56) %3)
  %5 = icmp eq i32 %4, 27
  ret i1 %5
}

; Function Attrs: mustprogress nounwind uwtable
define linkonce_odr hidden noundef zeroext i1 @_ZNK4llvm6Triple5isiOSEv(ptr noundef nonnull align 8 dereferenceable(56) %0) #1 comdat align 2 {
  %2 = alloca ptr, align 8
  store ptr %0, ptr %2, align 8
  %3 = load ptr, ptr %2, align 8
  %4 = call noundef i32 @_ZNK4llvm6Triple5getOSEv(ptr noundef nonnull align 8 dereferenceable(56) %3)
  %5 = icmp eq i32 %4, 5
  br i1 %5, label %8, label %6

6:                                                ; preds = %1
  %7 = call noundef zeroext i1 @_ZNK4llvm6Triple6isTvOSEv(ptr noundef nonnull align 8 dereferenceable(56) %3)
  br label %8

8:                                                ; preds = %6, %1
  %9 = phi i1 [ true, %1 ], [ %7, %6 ]
  ret i1 %9
}

; Function Attrs: mustprogress nounwind uwtable
define linkonce_odr hidden noundef zeroext i1 @_ZNK4llvm6Triple8isMacOSXEv(ptr noundef nonnull align 8 dereferenceable(56) %0) #1 comdat align 2 {
  %2 = alloca ptr, align 8
  store ptr %0, ptr %2, align 8
  %3 = load ptr, ptr %2, align 8
  %4 = call noundef i32 @_ZNK4llvm6Triple5getOSEv(ptr noundef nonnull align 8 dereferenceable(56) %3)
  %5 = icmp eq i32 %4, 1
  br i1 %5, label %9, label %6

6:                                                ; preds = %1
  %7 = call noundef i32 @_ZNK4llvm6Triple5getOSEv(ptr noundef nonnull align 8 dereferenceable(56) %3)
  %8 = icmp eq i32 %7, 9
  br label %9

9:                                                ; preds = %6, %1
  %10 = phi i1 [ true, %1 ], [ %8, %6 ]
  ret i1 %10
}

; Function Attrs: mustprogress nounwind uwtable
define linkonce_odr hidden void @_ZN4llvm13StringLiteralC2ILm8EEEUa9enable_ifIXeqclL_Z16__builtin_strlenEfL0p_EmiLm8ELi1EEERAT__Kc(ptr noundef nonnull align 8 dereferenceable(16) %0, ptr noundef nonnull align 1 dereferenceable(8) %1) unnamed_addr #1 comdat align 2 {
  %3 = alloca ptr, align 8
  %4 = alloca ptr, align 8
  store ptr %0, ptr %3, align 8
  store ptr %1, ptr %4, align 8
  %5 = load ptr, ptr %3, align 8
  %6 = load ptr, ptr %4, align 8
  %7 = getelementptr inbounds [8 x i8], ptr %6, i64 0, i64 0
  call void @_ZN4llvm9StringRefC2EPKcm(ptr noundef nonnull align 8 dereferenceable(16) %5, ptr noundef %7, i64 noundef 7)
  ret void
}

; Function Attrs: mustprogress nounwind uwtable
define linkonce_odr hidden void @_ZN4llvm13StringLiteralC2ILm10EEEUa9enable_ifIXeqclL_Z16__builtin_strlenEfL0p_EmiLm10ELi1EEERAT__Kc(ptr noundef nonnull align 8 dereferenceable(16) %0, ptr noundef nonnull align 1 dereferenceable(10) %1) unnamed_addr #1 comdat align 2 {
  %3 = alloca ptr, align 8
  %4 = alloca ptr, align 8
  store ptr %0, ptr %3, align 8
  store ptr %1, ptr %4, align 8
  %5 = load ptr, ptr %3, align 8
  %6 = load ptr, ptr %4, align 8
  %7 = getelementptr inbounds [10 x i8], ptr %6, i64 0, i64 0
  call void @_ZN4llvm9StringRefC2EPKcm(ptr noundef nonnull align 8 dereferenceable(16) %5, ptr noundef %7, i64 noundef 9)
  ret void
}

; Function Attrs: mustprogress nounwind uwtable
define linkonce_odr hidden noundef zeroext i1 @_ZNK4llvm6Triple8isArm64eEv(ptr noundef nonnull align 8 dereferenceable(56) %0) #1 comdat align 2 {
  %2 = alloca ptr, align 8
  store ptr %0, ptr %2, align 8
  %3 = load ptr, ptr %2, align 8
  %4 = call noundef i32 @_ZNK4llvm6Triple7getArchEv(ptr noundef nonnull align 8 dereferenceable(56) %3)
  %5 = icmp eq i32 %4, 3
  br i1 %5, label %6, label %9

6:                                                ; preds = %1
  %7 = call noundef i32 @_ZNK4llvm6Triple10getSubArchEv(ptr noundef nonnull align 8 dereferenceable(56) %3)
  %8 = icmp eq i32 %7, 34
  br label %9

9:                                                ; preds = %6, %1
  %10 = phi i1 [ false, %1 ], [ %8, %6 ]
  ret i1 %10
}

; Function Attrs: mustprogress nounwind uwtable
define linkonce_odr hidden void @_ZN4llvm13StringLiteralC2ILm6EEEUa9enable_ifIXeqclL_Z16__builtin_strlenEfL0p_EmiLm6ELi1EEERAT__Kc(ptr noundef nonnull align 8 dereferenceable(16) %0, ptr noundef nonnull align 1 dereferenceable(6) %1) unnamed_addr #1 comdat align 2 {
  %3 = alloca ptr, align 8
  %4 = alloca ptr, align 8
  store ptr %0, ptr %3, align 8
  store ptr %1, ptr %4, align 8
  %5 = load ptr, ptr %3, align 8
  %6 = load ptr, ptr %4, align 8
  %7 = getelementptr inbounds [6 x i8], ptr %6, i64 0, i64 0
  call void @_ZN4llvm9StringRefC2EPKcm(ptr noundef nonnull align 8 dereferenceable(16) %5, ptr noundef %7, i64 noundef 5)
  ret void
}

; Function Attrs: mustprogress nounwind uwtable
define linkonce_odr hidden noundef i32 @_ZNK4llvm6Triple7getArchEv(ptr noundef nonnull align 8 dereferenceable(56) %0) #1 comdat align 2 {
  %2 = alloca ptr, align 8
  store ptr %0, ptr %2, align 8
  %3 = load ptr, ptr %2, align 8
  %4 = getelementptr inbounds nuw %"class.llvm::Triple", ptr %3, i32 0, i32 1
  %5 = load i32, ptr %4, align 8
  ret i32 %5
}

; Function Attrs: mustprogress nounwind uwtable
define linkonce_odr hidden void @_ZN4llvm13StringLiteralC2ILm1EEEUa9enable_ifIXeqclL_Z16__builtin_strlenEfL0p_EmiLm1ELi1EEERAT__Kc(ptr noundef nonnull align 8 dereferenceable(16) %0, ptr noundef nonnull align 1 dereferenceable(1) %1) unnamed_addr #1 comdat align 2 {
  %3 = alloca ptr, align 8
  %4 = alloca ptr, align 8
  store ptr %0, ptr %3, align 8
  store ptr %1, ptr %4, align 8
  %5 = load ptr, ptr %3, align 8
  %6 = load ptr, ptr %4, align 8
  %7 = getelementptr inbounds [1 x i8], ptr %6, i64 0, i64 0
  call void @_ZN4llvm9StringRefC2EPKcm(ptr noundef nonnull align 8 dereferenceable(16) %5, ptr noundef %7, i64 noundef 0)
  ret void
}

; Function Attrs: mustprogress nounwind uwtable
define linkonce_odr hidden noundef zeroext i1 @_ZNK4llvm6Triple10isOSDarwinEv(ptr noundef nonnull align 8 dereferenceable(56) %0) #1 comdat align 2 {
  %2 = alloca ptr, align 8
  store ptr %0, ptr %2, align 8
  %3 = load ptr, ptr %2, align 8
  %4 = call noundef zeroext i1 @_ZNK4llvm6Triple8isMacOSXEv(ptr noundef nonnull align 8 dereferenceable(56) %3)
  br i1 %4, label %13, label %5

5:                                                ; preds = %1
  %6 = call noundef zeroext i1 @_ZNK4llvm6Triple5isiOSEv(ptr noundef nonnull align 8 dereferenceable(56) %3)
  br i1 %6, label %13, label %7

7:                                                ; preds = %5
  %8 = call noundef zeroext i1 @_ZNK4llvm6Triple9isWatchOSEv(ptr noundef nonnull align 8 dereferenceable(56) %3)
  br i1 %8, label %13, label %9

9:                                                ; preds = %7
  %10 = call noundef zeroext i1 @_ZNK4llvm6Triple11isDriverKitEv(ptr noundef nonnull align 8 dereferenceable(56) %3)
  br i1 %10, label %13, label %11

11:                                               ; preds = %9
  %12 = call noundef zeroext i1 @_ZNK4llvm6Triple6isXROSEv(ptr noundef nonnull align 8 dereferenceable(56) %3)
  br label %13

13:                                               ; preds = %11, %9, %7, %5, %1
  %14 = phi i1 [ true, %9 ], [ true, %7 ], [ true, %5 ], [ true, %1 ], [ %12, %11 ]
  ret i1 %14
}

; Function Attrs: mustprogress nounwind uwtable
define dso_local { ptr, i64 } @_ZN4llvm3lto20getThinLTODefaultCPUERKNS_6TripleE(ptr noundef nonnull align 8 dereferenceable(56) %0) #1 {
  %2 = alloca %"class.llvm::StringLiteral", align 8
  %3 = alloca ptr, align 8
  store ptr %0, ptr %3, align 8
  %4 = load ptr, ptr %3, align 8
  %5 = call noundef zeroext i1 @_ZNK4llvm6Triple10isOSDarwinEv(ptr noundef nonnull align 8 dereferenceable(56) %4)
  br i1 %5, label %7, label %6

6:                                                ; preds = %1
  call void @_ZN4llvm13StringLiteralC2ILm1EEEUa9enable_ifIXeqclL_Z16__builtin_strlenEfL0p_EmiLm1ELi1EEERAT__Kc(ptr noundef nonnull align 8 dereferenceable(16) %2, ptr noundef nonnull align 1 dereferenceable(1) @.str.8)
  br label %31

7:                                                ; preds = %1
  %8 = load ptr, ptr %3, align 8
  %9 = call noundef i32 @_ZNK4llvm6Triple7getArchEv(ptr noundef nonnull align 8 dereferenceable(56) %8)
  %10 = icmp eq i32 %9, 38
  br i1 %10, label %11, label %12

11:                                               ; preds = %7
  call void @_ZN4llvm13StringLiteralC2ILm6EEEUa9enable_ifIXeqclL_Z16__builtin_strlenEfL0p_EmiLm6ELi1EEERAT__Kc(ptr noundef nonnull align 8 dereferenceable(16) %2, ptr noundef nonnull align 1 dereferenceable(6) @.str.21)
  br label %31

12:                                               ; preds = %7
  %13 = load ptr, ptr %3, align 8
  %14 = call noundef i32 @_ZNK4llvm6Triple7getArchEv(ptr noundef nonnull align 8 dereferenceable(56) %13)
  %15 = icmp eq i32 %14, 37
  br i1 %15, label %16, label %17

16:                                               ; preds = %12
  call void @_ZN4llvm13StringLiteralC2ILm6EEEUa9enable_ifIXeqclL_Z16__builtin_strlenEfL0p_EmiLm6ELi1EEERAT__Kc(ptr noundef nonnull align 8 dereferenceable(16) %2, ptr noundef nonnull align 1 dereferenceable(6) @.str.22)
  br label %31

17:                                               ; preds = %12
  %18 = load ptr, ptr %3, align 8
  %19 = call noundef zeroext i1 @_ZNK4llvm6Triple8isArm64eEv(ptr noundef nonnull align 8 dereferenceable(56) %18)
  br i1 %19, label %20, label %21

20:                                               ; preds = %17
  call void @_ZN4llvm13StringLiteralC2ILm10EEEUa9enable_ifIXeqclL_Z16__builtin_strlenEfL0p_EmiLm10ELi1EEERAT__Kc(ptr noundef nonnull align 8 dereferenceable(16) %2, ptr noundef nonnull align 1 dereferenceable(10) @.str.23)
  br label %31

21:                                               ; preds = %17
  %22 = load ptr, ptr %3, align 8
  %23 = call noundef i32 @_ZNK4llvm6Triple7getArchEv(ptr noundef nonnull align 8 dereferenceable(56) %22)
  %24 = icmp eq i32 %23, 3
  br i1 %24, label %29, label %25

25:                                               ; preds = %21
  %26 = load ptr, ptr %3, align 8
  %27 = call noundef i32 @_ZNK4llvm6Triple7getArchEv(ptr noundef nonnull align 8 dereferenceable(56) %26)
  %28 = icmp eq i32 %27, 5
  br i1 %28, label %29, label %30

29:                                               ; preds = %25, %21
  call void @_ZN4llvm13StringLiteralC2ILm8EEEUa9enable_ifIXeqclL_Z16__builtin_strlenEfL0p_EmiLm8ELi1EEERAT__Kc(ptr noundef nonnull align 8 dereferenceable(16) %2, ptr noundef nonnull align 1 dereferenceable(8) @.str.24)
  br label %31

30:                                               ; preds = %25
  call void @_ZN4llvm13StringLiteralC2ILm1EEEUa9enable_ifIXeqclL_Z16__builtin_strlenEfL0p_EmiLm1ELi1EEERAT__Kc(ptr noundef nonnull align 8 dereferenceable(16) %2, ptr noundef nonnull align 1 dereferenceable(1) @.str.8)
  br label %31

31:                                               ; preds = %30, %29, %20, %16, %11, %6
  %32 = getelementptr inbounds nuw %"class.llvm::StringLiteral", ptr %2, i32 0, i32 0
  %33 = load { ptr, i64 }, ptr %32, align 8
  ret { ptr, i64 } %33
}