; Function Attrs: mustprogress nofree norecurse nosync nounwind willreturn memory(argmem: read) uwtable
define dso_local { ptr, i64 } @_ZN4llvm3lto20getThinLTODefaultCPUERKNS_6TripleE(ptr noundef nonnull readonly align 8 captures(none) dereferenceable(56) %0) local_unnamed_addr #7 {
  %2 = getelementptr inbounds nuw i8, ptr %0, i64 44
  %3 = load i32, ptr %2, align 4
  %4 = and i32 %3, -9
  %spec.select.i.i = icmp eq i32 %4, 1
  br i1 %spec.select.i.i, label %6, label %5

5:                                                ; preds = %1
  switch i32 %3, label %_ZNK4llvm6Triple10isOSDarwinEv.exit [
    i32 26, label %6
    i32 5, label %6
    i32 27, label %6
    i32 29, label %6
    i32 30, label %6
  ]

6:                                                ; preds = %5, %5, %5, %5, %5, %1
  %7 = getelementptr inbounds nuw i8, ptr %0, i64 32
  %8 = load i32, ptr %7, align 8
  switch i32 %8, label %9 [
    i32 38, label %_ZNK4llvm6Triple10isOSDarwinEv.exit
    i32 37, label %_ZNK4llvm6Triple10isOSDarwinEv.exit.fold.split
  ]

9:                                                ; preds = %6
  %10 = icmp eq i32 %8, 3
  %11 = getelementptr inbounds nuw i8, ptr %0, i64 36
  %12 = load i32, ptr %11, align 4
  %13 = icmp eq i32 %12, 34
  %14 = select i1 %10, i1 %13, i1 false
  %.mux = select i1 %14, i64 9, i64 7
  %.str.23.mux = select i1 %14, ptr @.str.23, ptr @.str.24
  br i1 %10, label %_ZNK4llvm6Triple10isOSDarwinEv.exit, label %15

15:                                               ; preds = %9
  %16 = icmp eq i32 %8, 5
  %spec.select = select i1 %16, i64 7, i64 0
  %spec.select6 = select i1 %16, ptr @.str.24, ptr @.str.8
  br label %_ZNK4llvm6Triple10isOSDarwinEv.exit

_ZNK4llvm6Triple10isOSDarwinEv.exit.fold.split:   ; preds = %6
  br label %_ZNK4llvm6Triple10isOSDarwinEv.exit

_ZNK4llvm6Triple10isOSDarwinEv.exit:              ; preds = %15, %9, %6, %_ZNK4llvm6Triple10isOSDarwinEv.exit.fold.split, %5
  %.sroa.7.0 = phi i64 [ 0, %5 ], [ 5, %6 ], [ %.mux, %9 ], [ 5, %_ZNK4llvm6Triple10isOSDarwinEv.exit.fold.split ], [ %spec.select, %15 ]
  %.sroa.0.0 = phi ptr [ @.str.8, %5 ], [ @.str.21, %6 ], [ %.str.23.mux, %9 ], [ @.str.22, %_ZNK4llvm6Triple10isOSDarwinEv.exit.fold.split ], [ %spec.select6, %15 ]
  %.fca.0.insert = insertvalue { ptr, i64 } poison, ptr %.sroa.0.0, 0
  %.fca.1.insert = insertvalue { ptr, i64 } %.fca.0.insert, i64 %.sroa.7.0, 1
  ret { ptr, i64 } %.fca.1.insert
}